; ModuleID = '49/947.c'
source_filename = "49/947.c"
target datalayout = "e-m:e-p270:32:32-p271:32:32-p272:64:64-i64:64-f80:128-n8:16:32:64-S128"
target triple = "x86_64-pc-linux-gnu"

@.str = private unnamed_addr constant [3 x i8] c"%c\00", align 1
@.str.1 = private unnamed_addr constant [2 x i8] c"\0A\00", align 1

; Function Attrs: noinline nounwind uwtable
define dso_local i32 @main() #0 {
  %1 = alloca i32, align 4
  %2 = alloca [500 x i8], align 16
  %3 = alloca i32, align 4
  %4 = alloca i32, align 4
  %5 = alloca i32, align 4
  %6 = alloca i32, align 4
  %7 = alloca i32, align 4
  store i32 0, i32* %1, align 4
  %8 = getelementptr inbounds [500 x i8], [500 x i8]* %2, i64 0, i64 0
  %9 = call i32 (i8*, ...) bitcast (i32 (...)* @gets to i32 (i8*, ...)*)(i8* %8)
  %10 = getelementptr inbounds [500 x i8], [500 x i8]* %2, i64 0, i64 0
  %11 = call i64 @strlen(i8* %10) #3
  %12 = trunc i64 %11 to i32
  store i32 %12, i32* %5, align 4
  store i32 2, i32* %3, align 4
  br label %13

13:                                               ; preds = %88, %0
  %14 = load i32, i32* %3, align 4
  %15 = load i32, i32* %5, align 4
  %16 = icmp sle i32 %14, %15
  br i1 %16, label %17, label %91

17:                                               ; preds = %13
  store i32 0, i32* %4, align 4
  br label %18

18:                                               ; preds = %84, %17
  %19 = load i32, i32* %4, align 4
  %20 = load i32, i32* %5, align 4
  %21 = load i32, i32* %3, align 4
  %22 = sub nsw i32 %20, %21
  %23 = icmp sle i32 %19, %22
  br i1 %23, label %24, label %87

24:                                               ; preds = %18
  %25 = load i32, i32* %4, align 4
  store i32 %25, i32* %6, align 4
  br label %26

26:                                               ; preds = %53, %24
  %27 = load i32, i32* %6, align 4
  %28 = load i32, i32* %4, align 4
  %29 = load i32, i32* %3, align 4
  %30 = sdiv i32 %29, 2
  %31 = add nsw i32 %28, %30
  %32 = icmp slt i32 %27, %31
  br i1 %32, label %33, label %56

33:                                               ; preds = %26
  %34 = load i32, i32* %6, align 4
  %35 = sext i32 %34 to i64
  %36 = getelementptr inbounds [500 x i8], [500 x i8]* %2, i64 0, i64 %35
  %37 = load i8, i8* %36, align 1
  %38 = sext i8 %37 to i32
  %39 = load i32, i32* %4, align 4
  %40 = mul nsw i32 2, %39
  %41 = load i32, i32* %3, align 4
  %42 = add nsw i32 %40, %41
  %43 = sub nsw i32 %42, 1
  %44 = load i32, i32* %6, align 4
  %45 = sub nsw i32 %43, %44
  %46 = sext i32 %45 to i64
  %47 = getelementptr inbounds [500 x i8], [500 x i8]* %2, i64 0, i64 %46
  %48 = load i8, i8* %47, align 1
  %49 = sext i8 %48 to i32
  %50 = icmp ne i32 %38, %49
  br i1 %50, label %51, label %52

51:                                               ; preds = %33
  br label %56

52:                                               ; preds = %33
  br label %53

53:                                               ; preds = %52
  %54 = load i32, i32* %6, align 4
  %55 = add nsw i32 %54, 1
  store i32 %55, i32* %6, align 4
  br label %26

56:                                               ; preds = %51, %26
  %57 = load i32, i32* %6, align 4
  %58 = load i32, i32* %4, align 4
  %59 = load i32, i32* %3, align 4
  %60 = sdiv i32 %59, 2
  %61 = add nsw i32 %58, %60
  %62 = icmp eq i32 %57, %61
  br i1 %62, label %63, label %83

63:                                               ; preds = %56
  %64 = load i32, i32* %4, align 4
  store i32 %64, i32* %7, align 4
  br label %65

65:                                               ; preds = %78, %63
  %66 = load i32, i32* %7, align 4
  %67 = load i32, i32* %4, align 4
  %68 = load i32, i32* %3, align 4
  %69 = add nsw i32 %67, %68
  %70 = icmp slt i32 %66, %69
  br i1 %70, label %71, label %81

71:                                               ; preds = %65
  %72 = load i32, i32* %7, align 4
  %73 = sext i32 %72 to i64
  %74 = getelementptr inbounds [500 x i8], [500 x i8]* %2, i64 0, i64 %73
  %75 = load i8, i8* %74, align 1
  %76 = sext i8 %75 to i32
  %77 = call i32 (i8*, ...) @printf(i8* getelementptr inbounds ([3 x i8], [3 x i8]* @.str, i64 0, i64 0), i32 %76)
  br label %78

78:                                               ; preds = %71
  %79 = load i32, i32* %7, align 4
  %80 = add nsw i32 %79, 1
  store i32 %80, i32* %7, align 4
  br label %65

81:                                               ; preds = %65
  %82 = call i32 (i8*, ...) @printf(i8* getelementptr inbounds ([2 x i8], [2 x i8]* @.str.1, i64 0, i64 0))
  br label %83

83:                                               ; preds = %81, %56
  br label %84

84:                                               ; preds = %83
  %85 = load i32, i32* %4, align 4
  %86 = add nsw i32 %85, 1
  store i32 %86, i32* %4, align 4
  br label %18

87:                                               ; preds = %18
  br label %88

88:                                               ; preds = %87
  %89 = load i32, i32* %3, align 4
  %90 = add nsw i32 %89, 1
  store i32 %90, i32* %3, align 4
  br label %13

91:                                               ; preds = %13
  %92 = load i32, i32* %1, align 4
  ret i32 %92
}

declare dso_local i32 @gets(...) #1

; Function Attrs: nounwind readonly
declare dso_local i64 @strlen(i8*) #2

declare dso_local i32 @printf(i8*, ...) #1


!llvm.module.flags = !{!0}
!llvm.ident = !{!1}

!0 = !{i32 1, !"wchar_size", i32 4}
!1 = !{!"clang version 10.0.0-4ubuntu1 "}
